target datalayout = "e-m:e-p270:32:32-p271:32:32-p272:64:64-i64:64-i128:128-f80:128-n8:16:32:64-S128"
target triple = "x86_64-unknown-linux-gnu"

%struct.QTailQLink = type { ptr, ptr }
%struct.BlockDriverState = type { i32, i8, i8, i8, i8, i8, ptr, ptr, ptr, %struct.anon.0, i8, [4096 x i8], [4096 x i8], [4096 x i8], [16 x i8], ptr, [4096 x i8], %struct.BlockLimits, i32, i32, i32, i32, [32 x i8], %union.anon, %union.anon.1, %union.anon.2, i32, [16 x %struct.anon.3], ptr, %struct.anon.4, ptr, ptr, %struct.anon.5, ptr, ptr, i32, ptr, i64, i64, %struct.QemuMutex, %struct.anon.6, %struct.Stat64, i32, i32, i32, i32, i32, i32, %struct.QemuMutex, %struct.anon.7, %struct.CoQueue, i8, i32, i8, %struct.CoMutex, ptr, ptr }
%struct.anon.0 = type { ptr }
%struct.BlockLimits = type { i32, i64, i32, i64, i32, i32, i32, i64, i32, i64, i64, i32, i8, i32, i32, i32, i32, i32, i32, i32 }
%union.anon = type { %struct.QTailQLink }
%union.anon.1 = type { %struct.QTailQLink }
%union.anon.2 = type { %struct.QTailQLink }
%struct.anon.3 = type { ptr }
%struct.anon.4 = type { ptr }
%struct.anon.5 = type { ptr }
%struct.anon.6 = type { ptr }
%struct.Stat64 = type { i64 }
%struct.QemuMutex = type { %union.pthread_mutex_t, i8 }
%union.pthread_mutex_t = type { %struct.__pthread_mutex_s }
%struct.__pthread_mutex_s = type { i32, i32, i32, i32, i32, i16, i16, %struct.__pthread_internal_list }
%struct.__pthread_internal_list = type { ptr, ptr }
%struct.anon.7 = type { ptr }
%struct.CoQueue = type { %struct.anon.8 }
%struct.anon.8 = type { ptr, ptr }
%struct.CoMutex = type { i32, ptr, %struct.anon.9, %struct.anon.9, i32, i32, ptr }
%struct.anon.9 = type { ptr }
%struct.BDRVQuorumState = type { ptr, i32, i32, i32, i8, i8, i32 }
%struct.QuorumAIOCB = type { ptr, ptr, i64, i64, i32, ptr, ptr, i32, i32, i32, %struct.QuorumVotes, i8, i32, i32 }
%struct.QuorumVotes = type { %struct.anon.15, ptr }
%struct.anon.15 = type { ptr }
%struct.QuorumCo = type { ptr, i32 }
%struct.QuorumChildRequest = type { ptr, %struct.QEMUIOVector, ptr, i32, ptr }
%struct.QEMUIOVector = type { ptr, i32, %union.anon.16 }
%union.anon.16 = type { %struct.anon.17 }
%struct.anon.17 = type { i32, %struct.iovec }
%struct.iovec = type { ptr, i64 }

; Function Attrs: nounwind sspstrong uwtable
define internal void @quorum_aio_finalize(ptr noundef %acb) #0 {
entry:
  %acb.addr = alloca ptr, align 8
  store ptr %acb, ptr %acb.addr, align 8
  %0 = load ptr, ptr %acb.addr, align 8
  %qcrs = getelementptr inbounds %struct.QuorumAIOCB, ptr %0, i32 0, i32 6
  %1 = load ptr, ptr %qcrs, align 8
  call void @g_free(ptr noundef %1)
  %2 = load ptr, ptr %acb.addr, align 8
  call void @g_free(ptr noundef %2)
  ret void
}

; Function Attrs: nounwind sspstrong uwtable
define internal ptr @quorum_aio_get(ptr noundef %bs, ptr noundef %qiov, i64 noundef %offset, i64 noundef %bytes, i32 noundef %flags) #0 {
entry:
  %bs.addr = alloca ptr, align 8
  %qiov.addr = alloca ptr, align 8
  %offset.addr = alloca i64, align 8
  %bytes.addr = alloca i64, align 8
  %flags.addr = alloca i32, align 4
  %s = alloca ptr, align 8
  %acb = alloca ptr, align 8
  %i = alloca i32, align 4
  %.compoundliteral = alloca %struct.QuorumAIOCB, align 8
  store ptr %bs, ptr %bs.addr, align 8
  store ptr %qiov, ptr %qiov.addr, align 8
  store i64 %offset, ptr %offset.addr, align 8
  store i64 %bytes, ptr %bytes.addr, align 8
  store i32 %flags, ptr %flags.addr, align 4
  %0 = load ptr, ptr %bs.addr, align 8
  %opaque = getelementptr inbounds %struct.BlockDriverState, ptr %0, i32 0, i32 7
  %1 = load ptr, ptr %opaque, align 8
  store ptr %1, ptr %s, align 8
  %call = call noalias ptr @g_malloc_n(i64 noundef 1, i64 noundef 104) #7
  store ptr %call, ptr %acb, align 8
  %2 = load ptr, ptr %acb, align 8
  %bs1 = getelementptr inbounds %struct.QuorumAIOCB, ptr %.compoundliteral, i32 0, i32 0
  %3 = load ptr, ptr %bs.addr, align 8
  store ptr %3, ptr %bs1, align 8
  %co = getelementptr inbounds %struct.QuorumAIOCB, ptr %.compoundliteral, i32 0, i32 1
  %call2 = call ptr @qemu_coroutine_self()
  store ptr %call2, ptr %co, align 8
  %offset3 = getelementptr inbounds %struct.QuorumAIOCB, ptr %.compoundliteral, i32 0, i32 2
  %4 = load i64, ptr %offset.addr, align 8
  store i64 %4, ptr %offset3, align 8
  %bytes4 = getelementptr inbounds %struct.QuorumAIOCB, ptr %.compoundliteral, i32 0, i32 3
  %5 = load i64, ptr %bytes.addr, align 8
  store i64 %5, ptr %bytes4, align 8
  %flags5 = getelementptr inbounds %struct.QuorumAIOCB, ptr %.compoundliteral, i32 0, i32 4
  %6 = load i32, ptr %flags.addr, align 4
  store i32 %6, ptr %flags5, align 8
  %qiov6 = getelementptr inbounds %struct.QuorumAIOCB, ptr %.compoundliteral, i32 0, i32 5
  %7 = load ptr, ptr %qiov.addr, align 8
  store ptr %7, ptr %qiov6, align 8
  %qcrs = getelementptr inbounds %struct.QuorumAIOCB, ptr %.compoundliteral, i32 0, i32 6
  store ptr null, ptr %qcrs, align 8
  %count = getelementptr inbounds %struct.QuorumAIOCB, ptr %.compoundliteral, i32 0, i32 7
  store i32 0, ptr %count, align 8
  %success_count = getelementptr inbounds %struct.QuorumAIOCB, ptr %.compoundliteral, i32 0, i32 8
  store i32 0, ptr %success_count, align 4
  %rewrite_count = getelementptr inbounds %struct.QuorumAIOCB, ptr %.compoundliteral, i32 0, i32 9
  store i32 0, ptr %rewrite_count, align 8
  %votes = getelementptr inbounds %struct.QuorumAIOCB, ptr %.compoundliteral, i32 0, i32 10
  %vote_list = getelementptr inbounds %struct.QuorumVotes, ptr %votes, i32 0, i32 0
  %lh_first = getelementptr inbounds %struct.anon.15, ptr %vote_list, i32 0, i32 0
  store ptr null, ptr %lh_first, align 8
  %compare = getelementptr inbounds %struct.QuorumVotes, ptr %votes, i32 0, i32 1
  store ptr @quorum_sha256_compare, ptr %compare, align 8
  %is_read = getelementptr inbounds %struct.QuorumAIOCB, ptr %.compoundliteral, i32 0, i32 11
  store i8 0, ptr %is_read, align 8
  %vote_ret = getelementptr inbounds %struct.QuorumAIOCB, ptr %.compoundliteral, i32 0, i32 12
  store i32 0, ptr %vote_ret, align 4
  %children_read = getelementptr inbounds %struct.QuorumAIOCB, ptr %.compoundliteral, i32 0, i32 13
  store i32 0, ptr %children_read, align 8
  call void @llvm.memcpy.p0.p0.i64(ptr align 8 %2, ptr align 8 %.compoundliteral, i64 104, i1 false)
  %8 = load ptr, ptr %s, align 8
  %num_children = getelementptr inbounds %struct.BDRVQuorumState, ptr %8, i32 0, i32 1
  %9 = load i32, ptr %num_children, align 8
  %conv = sext i32 %9 to i64
  %call7 = call noalias ptr @g_malloc0_n(i64 noundef %conv, i64 noundef 72) #7
  %10 = load ptr, ptr %acb, align 8
  %qcrs8 = getelementptr inbounds %struct.QuorumAIOCB, ptr %10, i32 0, i32 6
  store ptr %call7, ptr %qcrs8, align 8
  store i32 0, ptr %i, align 4
  br label %for.cond

for.cond:                                         ; preds = %for.inc, %entry
  %11 = load i32, ptr %i, align 4
  %12 = load ptr, ptr %s, align 8
  %num_children9 = getelementptr inbounds %struct.BDRVQuorumState, ptr %12, i32 0, i32 1
  %13 = load i32, ptr %num_children9, align 8
  %cmp = icmp slt i32 %11, %13
  br i1 %cmp, label %for.body, label %for.end

for.body:                                         ; preds = %for.cond
  %14 = load ptr, ptr %acb, align 8
  %qcrs11 = getelementptr inbounds %struct.QuorumAIOCB, ptr %14, i32 0, i32 6
  %15 = load ptr, ptr %qcrs11, align 8
  %16 = load i32, ptr %i, align 4
  %idxprom = sext i32 %16 to i64
  %arrayidx = getelementptr %struct.QuorumChildRequest, ptr %15, i64 %idxprom
  %buf = getelementptr inbounds %struct.QuorumChildRequest, ptr %arrayidx, i32 0, i32 2
  store ptr null, ptr %buf, align 8
  %17 = load ptr, ptr %acb, align 8
  %qcrs12 = getelementptr inbounds %struct.QuorumAIOCB, ptr %17, i32 0, i32 6
  %18 = load ptr, ptr %qcrs12, align 8
  %19 = load i32, ptr %i, align 4
  %idxprom13 = sext i32 %19 to i64
  %arrayidx14 = getelementptr %struct.QuorumChildRequest, ptr %18, i64 %idxprom13
  %ret = getelementptr inbounds %struct.QuorumChildRequest, ptr %arrayidx14, i32 0, i32 3
  store i32 0, ptr %ret, align 8
  %20 = load ptr, ptr %acb, align 8
  %21 = load ptr, ptr %acb, align 8
  %qcrs15 = getelementptr inbounds %struct.QuorumAIOCB, ptr %21, i32 0, i32 6
  %22 = load ptr, ptr %qcrs15, align 8
  %23 = load i32, ptr %i, align 4
  %idxprom16 = sext i32 %23 to i64
  %arrayidx17 = getelementptr %struct.QuorumChildRequest, ptr %22, i64 %idxprom16
  %parent = getelementptr inbounds %struct.QuorumChildRequest, ptr %arrayidx17, i32 0, i32 4
  store ptr %20, ptr %parent, align 8
  br label %for.inc

for.inc:                                          ; preds = %for.body
  %24 = load i32, ptr %i, align 4
  %inc = add i32 %24, 1
  store i32 %inc, ptr %i, align 4
  br label %for.cond, !llvm.loop !18

for.end:                                          ; preds = %for.cond
  %25 = load ptr, ptr %acb, align 8
  ret ptr %25
}

; Function Attrs: nounwind sspstrong uwtable
define internal i32 @quorum_co_pwritev(ptr noundef %bs, i64 noundef %offset, i64 noundef %bytes, ptr noundef %qiov, i32 noundef %flags) #0 {
entry:
  %bs.addr = alloca ptr, align 8
  %offset.addr = alloca i64, align 8
  %bytes.addr = alloca i64, align 8
  %qiov.addr = alloca ptr, align 8
  %flags.addr = alloca i32, align 4
  %s = alloca ptr, align 8
  %acb = alloca ptr, align 8
  %i = alloca i32, align 4
  %ret = alloca i32, align 4
  %co = alloca ptr, align 8
  %data = alloca %struct.QuorumCo, align 8
  store ptr %bs, ptr %bs.addr, align 8
  store i64 %offset, ptr %offset.addr, align 8
  store i64 %bytes, ptr %bytes.addr, align 8
  store ptr %qiov, ptr %qiov.addr, align 8
  store i32 %flags, ptr %flags.addr, align 4
  %0 = load ptr, ptr %bs.addr, align 8
  %opaque = getelementptr inbounds %struct.BlockDriverState, ptr %0, i32 0, i32 7
  %1 = load ptr, ptr %opaque, align 8
  store ptr %1, ptr %s, align 8
  %2 = load ptr, ptr %bs.addr, align 8
  %3 = load ptr, ptr %qiov.addr, align 8
  %4 = load i64, ptr %offset.addr, align 8
  %5 = load i64, ptr %bytes.addr, align 8
  %6 = load i32, ptr %flags.addr, align 4
  %call = call ptr @quorum_aio_get(ptr noundef %2, ptr noundef %3, i64 noundef %4, i64 noundef %5, i32 noundef %6)
  store ptr %call, ptr %acb, align 8
  store i32 0, ptr %i, align 4
  br label %for.cond

for.cond:                                         ; preds = %for.inc, %entry
  %7 = load i32, ptr %i, align 4
  %8 = load ptr, ptr %s, align 8
  %num_children = getelementptr inbounds %struct.BDRVQuorumState, ptr %8, i32 0, i32 1
  %9 = load i32, ptr %num_children, align 8
  %cmp = icmp slt i32 %7, %9
  br i1 %cmp, label %for.body, label %for.end

for.body:                                         ; preds = %for.cond
  %acb1 = getelementptr inbounds %struct.QuorumCo, ptr %data, i32 0, i32 0
  %10 = load ptr, ptr %acb, align 8
  store ptr %10, ptr %acb1, align 8
  %idx = getelementptr inbounds %struct.QuorumCo, ptr %data, i32 0, i32 1
  %11 = load i32, ptr %i, align 4
  store i32 %11, ptr %idx, align 8
  %call2 = call ptr @qemu_coroutine_create(ptr noundef @write_quorum_entry, ptr noundef %data)
  store ptr %call2, ptr %co, align 8
  %12 = load ptr, ptr %co, align 8
  call void @qemu_coroutine_enter(ptr noundef %12)
  br label %for.inc

for.inc:                                          ; preds = %for.body
  %13 = load i32, ptr %i, align 4
  %inc = add i32 %13, 1
  store i32 %inc, ptr %i, align 4
  br label %for.cond, !llvm.loop !12

for.end:                                          ; preds = %for.cond
  br label %while.cond

while.cond:                                       ; preds = %while.body, %for.end
  %14 = load ptr, ptr %acb, align 8
  %count = getelementptr inbounds %struct.QuorumAIOCB, ptr %14, i32 0, i32 7
  %15 = load i32, ptr %count, align 8
  %16 = load ptr, ptr %s, align 8
  %num_children3 = getelementptr inbounds %struct.BDRVQuorumState, ptr %16, i32 0, i32 1
  %17 = load i32, ptr %num_children3, align 8
  %cmp4 = icmp slt i32 %15, %17
  br i1 %cmp4, label %while.body, label %while.end

while.body:                                       ; preds = %while.cond
  call void @qemu_coroutine_yield()
  br label %while.cond, !llvm.loop !13

while.end:                                        ; preds = %while.cond
  %18 = load ptr, ptr %acb, align 8
  %call5 = call zeroext i1 @quorum_has_too_much_io_failed(ptr noundef %18)
  %19 = load ptr, ptr %acb, align 8
  %vote_ret = getelementptr inbounds %struct.QuorumAIOCB, ptr %19, i32 0, i32 12
  %20 = load i32, ptr %vote_ret, align 4
  store i32 %20, ptr %ret, align 4
  %21 = load ptr, ptr %acb, align 8
  call void @quorum_aio_finalize(ptr noundef %21)
  %22 = load i32, ptr %ret, align 4
  ret i32 %22
}